; Function Attrs: nounwind uwtable
define hidden i32 @jWrtRawData(ptr noundef %0, ptr noundef %1, i32 noundef %2) local_unnamed_addr #0 {
  %4 = getelementptr inbounds i8, ptr %0, i64 36
  %5 = load i32, ptr %4, align 4
  %.not = icmp eq i32 %5, 102
  br i1 %.not, label %14, label %6

6:                                                ; preds = %3
  %7 = load ptr, ptr %0, align 8
  %8 = getelementptr inbounds i8, ptr %7, i64 40
  store i32 20, ptr %8, align 8
  %9 = load i32, ptr %4, align 4
  %10 = load ptr, ptr %0, align 8
  %11 = getelementptr inbounds i8, ptr %10, i64 44
  store i32 %9, ptr %11, align 4
  %12 = load ptr, ptr %0, align 8
  %13 = load ptr, ptr %12, align 8
  tail call void %13(ptr noundef nonnull %0) #3
  br label %14

14:                                               ; preds = %6, %3
  %15 = getelementptr inbounds i8, ptr %0, i64 304
  %16 = load i32, ptr %15, align 8
  %17 = getelementptr inbounds i8, ptr %0, i64 52
  %18 = load i32, ptr %17, align 4
  %.not35 = icmp ult i32 %16, %18
  br i1 %.not35, label %25, label %19

19:                                               ; preds = %14
  %20 = load ptr, ptr %0, align 8
  %21 = getelementptr inbounds i8, ptr %20, i64 40
  store i32 123, ptr %21, align 8
  %22 = load ptr, ptr %0, align 8
  %23 = getelementptr inbounds i8, ptr %22, i64 8
  %24 = load ptr, ptr %23, align 8
  tail call void %24(ptr noundef nonnull %0, i32 noundef -1) #3
  br label %64

25:                                               ; preds = %14
  %26 = getelementptr inbounds i8, ptr %0, i64 16
  %27 = load ptr, ptr %26, align 8
  %.not36 = icmp eq ptr %27, null
  br i1 %.not36, label %37, label %28

28:                                               ; preds = %25
  %29 = zext i32 %16 to i64
  %30 = getelementptr inbounds i8, ptr %27, i64 8
  store i64 %29, ptr %30, align 8
  %31 = load i32, ptr %17, align 4
  %32 = zext i32 %31 to i64
  %33 = load ptr, ptr %26, align 8
  %34 = getelementptr inbounds i8, ptr %33, i64 16
  store i64 %32, ptr %34, align 8
  %35 = load ptr, ptr %26, align 8
  %36 = load ptr, ptr %35, align 8
  tail call void %36(ptr noundef nonnull %0) #3
  br label %37

37:                                               ; preds = %28, %25
  %38 = getelementptr inbounds i8, ptr %0, i64 432
  %39 = load ptr, ptr %38, align 8
  %40 = getelementptr inbounds i8, ptr %39, i64 24
  %41 = load i32, ptr %40, align 8
  %.not37 = icmp eq i32 %41, 0
  br i1 %.not37, label %45, label %42

42:                                               ; preds = %37
  %43 = getelementptr inbounds i8, ptr %39, i64 8
  %44 = load ptr, ptr %43, align 8
  tail call void %44(ptr noundef nonnull %0) #3
  br label %45

45:                                               ; preds = %42, %37
  %46 = getelementptr inbounds i8, ptr %0, i64 316
  %47 = load i32, ptr %46, align 4
  %48 = shl nsw i32 %47, 3
  %49 = icmp ugt i32 %48, %2
  br i1 %49, label %50, label %55

50:                                               ; preds = %45
  %51 = load ptr, ptr %0, align 8
  %52 = getelementptr inbounds i8, ptr %51, i64 40
  store i32 23, ptr %52, align 8
  %53 = load ptr, ptr %0, align 8
  %54 = load ptr, ptr %53, align 8
  tail call void %54(ptr noundef nonnull %0) #3
  br label %55

55:                                               ; preds = %50, %45
  %56 = getelementptr inbounds i8, ptr %0, i64 456
  %57 = load ptr, ptr %56, align 8
  %58 = getelementptr inbounds i8, ptr %57, i64 8
  %59 = load ptr, ptr %58, align 8
  %60 = tail call i32 %59(ptr noundef nonnull %0, ptr noundef %1) #3
  %.not38 = icmp eq i32 %60, 0
  br i1 %.not38, label %64, label %61

61:                                               ; preds = %55
  %62 = load i32, ptr %15, align 8
  %63 = add i32 %62, %48
  store i32 %63, ptr %15, align 8
  br label %64

64:                                               ; preds = %55, %61, %19
  %.0 = phi i32 [ 0, %19 ], [ %48, %61 ], [ 0, %55 ]
  ret i32 %.0
}